; Function Attrs: mustprogress nofree norecurse nosync nounwind willreturn memory(argmem: readwrite) uwtable
define dso_local void @_ZN23btReducedDeformableBody18applyTorqueImpulseERK9btVector3(ptr noundef nonnull align 8 captures(none) dereferenceable(3176) %0, ptr noundef nonnull readonly align 4 captures(none) dereferenceable(16) %1) local_unnamed_addr #18 align 2 {
  %3 = getelementptr inbounds nuw i8, ptr %0, i64 2640
  %4 = load float, ptr %3, align 8, !tbaa !138
  %5 = load float, ptr %1, align 4, !tbaa !138
  %6 = getelementptr inbounds nuw i8, ptr %0, i64 2644
  %7 = load float, ptr %6, align 4, !tbaa !138
  %8 = getelementptr inbounds nuw i8, ptr %1, i64 4
  %9 = load float, ptr %8, align 4, !tbaa !138
  %10 = fmul float %7, %9
  %11 = tail call float @llvm.fmuladd.f32(float %4, float %5, float %10)
  %12 = getelementptr inbounds nuw i8, ptr %0, i64 2648
  %13 = load float, ptr %12, align 8, !tbaa !138
  %14 = getelementptr inbounds nuw i8, ptr %1, i64 8
  %15 = load float, ptr %14, align 4, !tbaa !138
  %16 = tail call noundef float @llvm.fmuladd.f32(float %13, float %15, float %11)
  %17 = getelementptr inbounds nuw i8, ptr %0, i64 2656
  %18 = load float, ptr %17, align 8, !tbaa !138
  %19 = getelementptr inbounds nuw i8, ptr %0, i64 2660
  %20 = load float, ptr %19, align 4, !tbaa !138
  %21 = fmul float %9, %20
  %22 = tail call float @llvm.fmuladd.f32(float %18, float %5, float %21)
  %23 = getelementptr inbounds nuw i8, ptr %0, i64 2664
  %24 = load float, ptr %23, align 8, !tbaa !138
  %25 = tail call noundef float @llvm.fmuladd.f32(float %24, float %15, float %22)
  %26 = getelementptr inbounds nuw i8, ptr %0, i64 2672
  %27 = load float, ptr %26, align 8, !tbaa !138
  %28 = getelementptr inbounds nuw i8, ptr %0, i64 2676
  %29 = load float, ptr %28, align 4, !tbaa !138
  %30 = fmul float %9, %29
  %31 = tail call float @llvm.fmuladd.f32(float %27, float %5, float %30)
  %32 = getelementptr inbounds nuw i8, ptr %0, i64 2680
  %33 = load float, ptr %32, align 8, !tbaa !138
  %34 = tail call noundef float @llvm.fmuladd.f32(float %33, float %15, float %31)
  %35 = getelementptr inbounds nuw i8, ptr %0, i64 2416
  %36 = load float, ptr %35, align 8, !tbaa !138
  %37 = fmul float %16, %36
  %38 = getelementptr inbounds nuw i8, ptr %0, i64 2420
  %39 = load float, ptr %38, align 4, !tbaa !138
  %40 = fmul float %25, %39
  %41 = getelementptr inbounds nuw i8, ptr %0, i64 2424
  %42 = load float, ptr %41, align 8, !tbaa !138
  %43 = fmul float %34, %42
  %44 = getelementptr inbounds nuw i8, ptr %0, i64 2376
  %45 = load float, ptr %44, align 8, !tbaa !138
  %46 = fadd float %37, %45
  store float %46, ptr %44, align 8, !tbaa !138
  %47 = getelementptr inbounds nuw i8, ptr %0, i64 2380
  %48 = load float, ptr %47, align 4, !tbaa !138
  %49 = fadd float %40, %48
  store float %49, ptr %47, align 4, !tbaa !138
  %50 = getelementptr inbounds nuw i8, ptr %0, i64 2384
  %51 = load float, ptr %50, align 8, !tbaa !138
  %52 = fadd float %43, %51
  store float %52, ptr %50, align 8, !tbaa !138
  ret void
}